; ModuleID = 'bench/php/original/shared_alloc_shm.ll'
source_filename = "bench/php/original/shared_alloc_shm.ll"
target datalayout = "e-m:e-p270:32:32-p271:32:32-p272:64:64-i64:64-i128:128-f80:128-n8:16:32:64-S128"
target triple = "x86_64-pc-linux-gnu"

%struct.zend_shared_memory_handlers = type { ptr, ptr, ptr }
%struct.shmid_ds = type { %struct.ipc_perm, i64, i64, i64, i64, i32, i32, i64, i64, i64 }
%struct.ipc_perm = type { i32, i32, i32, i32, i32, i32, i16, i16, i64, i64 }
%struct.zend_shared_segment_shm = type { %struct._zend_shared_segment, i32 }
%struct._zend_shared_segment = type { i64, i64, i64, ptr }

@zend_alloc_shm_handlers = hidden local_unnamed_addr constant %struct.zend_shared_memory_handlers { ptr @create_segments, ptr @detach_segment, ptr @segment_type_size }, align 8
@.str = private unnamed_addr constant [7 x i8] c"shmget\00", align 1
@.str.1 = private unnamed_addr constant [7 x i8] c"calloc\00", align 1
@.str.2 = private unnamed_addr constant [6 x i8] c"shmat\00", align 1

; Function Attrs: nounwind uwtable
define internal range(i32 0, 2) i32 @create_segments(i64 noundef %0, ptr noundef captures(none) %1, ptr noundef captures(none) %2, ptr noundef writeonly captures(none) %3) #0 {
  %5 = alloca %struct.shmid_ds, align 8
  call void @llvm.lifetime.start.p0(i64 112, ptr nonnull %5) #6
  %6 = shl i64 %0, 1
  br label %7

7:                                                ; preds = %7, %4
  %.073 = phi i64 [ 33554432, %4 ], [ %11, %7 ]
  %8 = icmp ule i64 %6, %.073
  %9 = icmp samesign ugt i64 %.073, 2097152
  %10 = select i1 %8, i1 %9, i1 false
  %11 = lshr i64 %.073, 1
  br i1 %10, label %7, label %.preheader83

.preheader83:                                     ; preds = %7
  %12 = icmp samesign ugt i64 %.073, 2097151
  br i1 %12, label %.lr.ph, label %._crit_edge

.lr.ph:                                           ; preds = %.preheader83, %15
  %.17486 = phi i64 [ %16, %15 ], [ %.073, %.preheader83 ]
  %13 = tail call i64 @llvm.umin.i64(i64 %0, i64 %.17486)
  %14 = tail call i32 @shmget(i32 noundef -1, i64 noundef %13, i32 noundef 1920) #6
  %.not = icmp eq i32 %14, -1
  br i1 %.not, label %15, label %18

15:                                               ; preds = %.lr.ph
  %16 = lshr i64 %.17486, 1
  %17 = icmp samesign ugt i64 %.17486, 4194303
  br i1 %17, label %.lr.ph, label %._crit_edge

._crit_edge:                                      ; preds = %15, %.preheader83
  store ptr @.str, ptr %3, align 8, !tbaa !4
  br label %.loopexit

18:                                               ; preds = %.lr.ph
  %19 = add i64 %0, -1
  %20 = tail call range(i64 0, 65) i64 @llvm.cttz.i64(i64 %.17486, i1 true)
  %21 = lshr i64 %19, %20
  %22 = trunc i64 %21 to i32
  %23 = add i32 %22, 1
  store i32 %23, ptr %2, align 4, !tbaa !9
  %24 = sext i32 %23 to i64
  %25 = mul nsw i64 %24, 48
  %26 = tail call noalias ptr @calloc(i64 noundef 1, i64 noundef %25) #7
  store ptr %26, ptr %1, align 8, !tbaa !11
  %.not80 = icmp eq ptr %26, null
  br i1 %.not80, label %27, label %28

27:                                               ; preds = %18
  store ptr @.str.1, ptr %3, align 8, !tbaa !4
  br label %.loopexit

28:                                               ; preds = %18
  %29 = shl nsw i64 %24, 3
  %30 = getelementptr inbounds nuw i8, ptr %26, i64 %29
  %31 = icmp ult i32 %22, 2147483647
  br i1 %31, label %.lr.ph89.preheader, label %.loopexit

.lr.ph89.preheader:                               ; preds = %28
  %wide.trip.count = zext nneg i32 %23 to i64
  br label %.lr.ph89

.lr.ph92:                                         ; preds = %.lr.ph89
  %32 = getelementptr inbounds nuw i8, ptr %30, i64 32
  br label %36

.lr.ph89:                                         ; preds = %.lr.ph89.preheader, %.lr.ph89
  %indvars.iv = phi i64 [ 0, %.lr.ph89.preheader ], [ %indvars.iv.next, %.lr.ph89 ]
  %33 = getelementptr inbounds nuw %struct.zend_shared_segment_shm, ptr %30, i64 %indvars.iv
  %34 = load ptr, ptr %1, align 8, !tbaa !11
  %35 = getelementptr inbounds nuw ptr, ptr %34, i64 %indvars.iv
  store ptr %33, ptr %35, align 8, !tbaa !11
  %indvars.iv.next = add nuw nsw i64 %indvars.iv, 1
  %exitcond.not = icmp eq i64 %indvars.iv.next, %wide.trip.count
  br i1 %exitcond.not, label %.lr.ph92, label %.lr.ph89

36:                                               ; preds = %.lr.ph92, %54
  %indvars.iv99 = phi i64 [ 0, %.lr.ph92 ], [ %indvars.iv.next100, %54 ]
  %.07590 = phi i64 [ %0, %.lr.ph92 ], [ %58, %54 ]
  %37 = call i64 @llvm.umin.i64(i64 %.07590, i64 %.17486)
  %.not81 = icmp eq i64 %indvars.iv99, 0
  br i1 %.not81, label %41, label %38

38:                                               ; preds = %36
  %39 = call i32 @shmget(i32 noundef 0, i64 noundef %37, i32 noundef 1920) #6
  %40 = getelementptr inbounds nuw %struct.zend_shared_segment_shm, ptr %30, i64 %indvars.iv99, i32 1
  store i32 %39, ptr %40, align 8, !tbaa !12
  br label %42

41:                                               ; preds = %36
  store i32 %14, ptr %32, align 8, !tbaa !12
  br label %42

42:                                               ; preds = %41, %38
  %43 = phi i32 [ %14, %41 ], [ %39, %38 ]
  %44 = getelementptr inbounds nuw %struct.zend_shared_segment_shm, ptr %30, i64 %indvars.iv99
  %45 = getelementptr inbounds nuw i8, ptr %44, i64 32
  %46 = icmp eq i32 %43, -1
  br i1 %46, label %.loopexit, label %47

47:                                               ; preds = %42
  %48 = call ptr @shmat(i32 noundef %43, ptr noundef null, i32 noundef 0) #6
  %49 = getelementptr inbounds nuw i8, ptr %44, i64 24
  store ptr %48, ptr %49, align 8, !tbaa !16
  %50 = icmp eq ptr %48, inttoptr (i64 -1 to ptr)
  br i1 %50, label %51, label %54

51:                                               ; preds = %47
  store ptr @.str.2, ptr %3, align 8, !tbaa !4
  %52 = load i32, ptr %45, align 8, !tbaa !12
  %53 = call i32 @shmctl(i32 noundef %52, i32 noundef 0, ptr noundef nonnull %5) #6
  br label %.loopexit

54:                                               ; preds = %47
  %55 = load i32, ptr %45, align 8, !tbaa !12
  %56 = call i32 @shmctl(i32 noundef %55, i32 noundef 0, ptr noundef nonnull %5) #6
  %57 = getelementptr inbounds nuw i8, ptr %44, i64 16
  store i64 0, ptr %57, align 8, !tbaa !17
  store i64 %37, ptr %44, align 8, !tbaa !18
  %58 = sub i64 %.07590, %37
  %indvars.iv.next100 = add nuw nsw i64 %indvars.iv99, 1
  %59 = load i32, ptr %2, align 4, !tbaa !9
  %60 = sext i32 %59 to i64
  %61 = icmp slt i64 %indvars.iv.next100, %60
  br i1 %61, label %36, label %.loopexit

.loopexit:                                        ; preds = %42, %54, %28, %51, %27, %._crit_edge
  %.0 = phi i32 [ 0, %._crit_edge ], [ 0, %51 ], [ 0, %27 ], [ 1, %28 ], [ 0, %42 ], [ 1, %54 ]
  call void @llvm.lifetime.end.p0(i64 112, ptr nonnull %5) #6
  ret i32 %.0
}

; Function Attrs: nounwind uwtable
define internal noundef i32 @detach_segment(ptr noundef readonly captures(none) %0) #0 {
  %2 = getelementptr inbounds nuw i8, ptr %0, i64 24
  %3 = load ptr, ptr %2, align 8, !tbaa !16
  %4 = tail call i32 @shmdt(ptr noundef %3) #6
  ret i32 0
}

; Function Attrs: mustprogress nofree norecurse nosync nounwind willreturn memory(none) uwtable
define internal noundef i64 @segment_type_size() #1 {
  ret i64 40
}

; Function Attrs: mustprogress nocallback nofree nosync nounwind willreturn memory(argmem: readwrite)
declare void @llvm.lifetime.start.p0(i64 immarg, ptr captures(none)) #2

; Function Attrs: nounwind
declare i32 @shmget(i32 noundef, i64 noundef, i32 noundef) local_unnamed_addr #3

; Function Attrs: mustprogress nofree nounwind willreturn allockind("alloc,zeroed") allocsize(0,1) memory(inaccessiblemem: readwrite)
declare noalias noundef ptr @calloc(i64 noundef, i64 noundef) local_unnamed_addr #4

; Function Attrs: nounwind
declare ptr @shmat(i32 noundef, ptr noundef, i32 noundef) local_unnamed_addr #3

; Function Attrs: nounwind
declare i32 @shmctl(i32 noundef, i32 noundef, ptr noundef) local_unnamed_addr #3

; Function Attrs: mustprogress nocallback nofree nosync nounwind willreturn memory(argmem: readwrite)
declare void @llvm.lifetime.end.p0(i64 immarg, ptr captures(none)) #2

; Function Attrs: nounwind
declare i32 @shmdt(ptr noundef) local_unnamed_addr #3

; Function Attrs: nocallback nofree nosync nounwind speculatable willreturn memory(none)
declare i64 @llvm.umin.i64(i64, i64) #5

; Function Attrs: nocallback nofree nosync nounwind speculatable willreturn memory(none)
declare i64 @llvm.cttz.i64(i64, i1 immarg) #5


!llvm.module.flags = !{!0, !1, !2, !3}

!0 = !{i32 1, !"wchar_size", i32 4}
!1 = !{i32 8, !"PIC Level", i32 2}
!2 = !{i32 7, !"PIE Level", i32 2}
!3 = !{i32 7, !"uwtable", i32 2}
!4 = !{!5, !5, i64 0}
!5 = !{!"p1 omnipotent char", !6, i64 0}
!6 = !{!"any pointer", !7, i64 0}
!7 = !{!"omnipotent char", !8, i64 0}
!8 = !{!"Simple C/C++ TBAA"}
!9 = !{!10, !10, i64 0}
!10 = !{!"int", !7, i64 0}
!11 = !{!6, !6, i64 0}
!12 = !{!13, !10, i64 32}
!13 = !{!"", !14, i64 0, !10, i64 32}
!14 = !{!"_zend_shared_segment", !15, i64 0, !15, i64 8, !15, i64 16, !6, i64 24}
!15 = !{!"long", !7, i64 0}
!16 = !{!13, !6, i64 24}
!17 = !{!13, !15, i64 16}
!18 = !{!13, !15, i64 0}
